; Function Attrs: mustprogress nounwind uwtable
define hidden void @_ZN13CollectedHeap12memory_usageEv(ptr dead_on_unwind noalias nocapture writable writeonly sret(%class.MemoryUsage) align 8 %0, ptr noundef nonnull align 8 dereferenceable(104) %1) unnamed_addr #0 align 2 {
  %3 = load i64, ptr @InitialHeapSize, align 8
  %4 = load ptr, ptr %1, align 8
  %5 = getelementptr inbounds i8, ptr %4, i64 96
  %6 = load ptr, ptr %5, align 8
  %7 = tail call noundef i64 %6(ptr noundef nonnull align 8 dereferenceable(104) %1) #18
  %8 = load ptr, ptr %1, align 8
  %9 = getelementptr inbounds i8, ptr %8, i64 88
  %10 = load ptr, ptr %9, align 8
  %11 = tail call noundef i64 %10(ptr noundef nonnull align 8 dereferenceable(104) %1) #18
  %12 = load ptr, ptr %1, align 8
  %13 = getelementptr inbounds i8, ptr %12, i64 120
  %14 = load ptr, ptr %13, align 8
  %15 = tail call noundef i64 %14(ptr noundef nonnull align 8 dereferenceable(104) %1) #18
  store i64 %3, ptr %0, align 8
  %16 = getelementptr inbounds i8, ptr %0, i64 8
  store i64 %7, ptr %16, align 8
  %17 = getelementptr inbounds i8, ptr %0, i64 16
  store i64 %11, ptr %17, align 8
  %18 = getelementptr inbounds i8, ptr %0, i64 24
  store i64 %15, ptr %18, align 8
  ret void
}